(dp0
V\u8f93\u51fa
p1
I17
sV\u663e\u793a
p2
I158
sV\u76ee\u6d4b
p3
I78
sV\u5b9a\u4e49
p4
I76
sV\u4e3a\u4ec0\u4e48
p5
I80
sV\u6700\u6709
p6
I73
sV\u652f\u6491\u4f4d
p7
I157
sV\u667a\u80fd
p8
I10
sV\u8fde\u521b
p9
I130
sV\u624b\u673a
p10
I16
sV\u6211\u4eec
p11
I22
sV\u5f00\u653e\u6027
p12
I90
sV\u9644\u8fd1
p13
I106
sVG7
p14
I135
sV\u5185\u7f6e
p15
I37
sV\u4e00\u4e2a
p16
I143
sV\u9047\u963b
p17
I148
sV\u53d1\u751f
p18
I162
sVGlass
p19
I4
sV\u521b\u9020
p20
I66
sV\u4e00\u6837
p21
I44
sV\u9605\u8bfb
p22
I11
sV\u6587\u7ae0
p23
I87
sV2245
p24
I115
sV\u73b0\u5728
p25
I28
sV\u5206\u4eab
p26
I36
sVGR
p27
I12
sV\u5e9f\u6389
p28
I88
sV\u6ce2\u5e45
p29
I155
sV\u5934\u80a9
p30
I114
sV\u8fd9\u4e2a
p31
I27
sV\u6070\u5230\u597d\u5904
p32
I149
sV\u7eb3\u6307
p33
I152
sV\u652f\u6491
p34
I110
sV\u8ba2\u9605
p35
I50
sV\u8fd9\u662f
p36
I186
sV\u5a92\u4f53
p37
I24
sV\u5fae\u4fe1
p38
I55
sV\u4ee5\u4e0a
p39
I142
sV\u516d\u5468
p40
I145
sV\u793e\u4f1a\u5316
p41
I45
sV\u6295\u8d44\u8005
p42
I160
sV\u770b\u591a
p43
I131
sV\u5c4f\u5e55
p44
I46
sV\u6da8\u5e45
p45
I126
sV\u8f6c\u5f3a
p46
I199
sV\u6001\u52bf
p47
I156
sV2250
p48
I136
sV\u8fd9\u91cc
p49
I72
sV\u7a7f\u6234
p50
I9
sV\u89c9\u5f97
p51
I92
sV\u4e00\u9897
p52
I176
sV\u7f13\u6162
p53
I180
sV\u56e0\u4e3a
p54
I84
sV\u4f46\u662f
p55
I188
sV\u671f\u5e02
p56
I117
sV\u751f\u6001
p57
I38
sV\u975e\u5e38
p58
I89
sV\u7f51\u6613
p59
I49
sV\u91cf\u4ef7
p60
I198
sV\u80a1\u6307
p61
I116
sV\u4e0a\u653b
p62
I141
sV\u62b9\u6740
p63
I81
sV\u5f62\u5f0f
p64
I85
sV\u6280\u672f
p65
I64
sVTech2IPO
p66
I57
sV\u978b\u5b50
p67
I2
sV\u5f00\u53d1\u8005
p68
I18
sVreader
p69
I3
sV\u4e2d\u56fd
p70
I99
sV\u51cf\u7f13
p71
I165
sV\u5e02\u573a
p72
I181
sV\u8bbe\u5907
p73
I8
sV\u963b\u538b
p74
I196
sV\u5fae\u535a
p75
I54
sV\u8fd1\u65e5
p76
I140
sV\u4e0a\u5347
p77
I146
sV\u6269\u5927
p78
I166
sV\u56de\u843d
p79
I104
sV\u9888\u7ebf
p80
I193
sVApp
p81
I59
sV\u5b83\u4eec
p82
I86
sV\u5f31\u52bf
p83
I170
sV\u53ef\u80fd
p84
I127
sV\u5747\u7ebf
p85
I177
sV\u5185\u5bb9
p86
I6
sV\u5c31\u662f
p87
I25
sV\u4ea7\u54c1
p88
I14
sV\u957f\u671f
p89
I128
sV2160
p90
I103
sV\u987e\u6bd4
p91
I194
sV\u65f6\u673a
p92
I178
sV\u4e0a\u5468
p93
I139
sV\u76f8\u5bf9
p94
I171
sV\u8fd1\u671f
p95
I167
sVReader
p96
I1
sV\u53ef\u4ee5
p97
I35
sV\u53cd\u5f39
p98
I109
sVStore
p99
I58
sV600
p100
I60
sV2200
p101
I137
sV\u4e00\u6b21
p102
I153
sV\u6d88\u8d39\u8005
p103
I52
sV\u5bf9\u4e8e
p104
I74
sV\u53cd\u590d
p105
I129
sV\u63a2\u4f4e
p106
I132
sV\u4f4d\u4e8e
p107
I172
sV\u6301\u7eed
p108
I173
sV\u6536\u6da8
p109
I113
sV\u4f59\u97f3\u7ed5\u6881
p110
I189
sV\u9ad8\u70b9
p111
I125
sV\u82f9\u679c
p112
I70
sV\u9707\u8361
p113
I168
sV\u8fd0\u884c
p114
I120
sV\u9700\u6c42
p115
I23
sV\u6b63\u5728
p116
I154
sV\u7c89\u4e1d
p117
I94
sVGMMA
p118
I100
sV\u624b\u8868
p119
I48
sV\u7528\u6237
p120
I7
sV\u76ee\u6807
p121
I111
sV\u6b7b\u5fe0
p122
I53
sV\u6574\u7406
p123
I151
sV\u4e2d\u671f
p124
I123
sV\u8d8b\u52bf
p125
I105
sV\u77ed\u7ebf
p126
I187
sV13
p127
I138
sV\u90a3\u4e48
p128
I68
sV\u67e5\u770b
p129
I77
sV\u7ade\u4e89
p130
I97
sV18
p131
I61
sV\u4e3b\u8981
p132
I175
sV\u56fe\u4e0a
p133
I147
sV\u7279\u5f81
p134
I163
sV\u7a81\u7834
p135
I108
sV\u6216\u8bb8
p136
I185
sV\u4e0a\u8bc1\u6307\u6570
p137
I118
sV\u4e00\u90e8
p138
I47
sV\u5176\u5b9e
p139
I82
sV\u5f88\u591a
p140
I39
sV\u8ba8\u8bba
p141
I93
sV\u9f99\u771f
p142
I21
sV\u5468\u7ebf
p143
I112
sV\u9ad8\u5f00
p144
I192
sV\u4e16\u754c
p145
I29
sV\u95e8\u6237
p146
I69
sV\u6027\u4ef7\u6bd4
p147
I96
sV\u957f\u4e0b
p148
I197
sV\u65f6\u95f4
p149
I83
sV\u5e94\u7528
p150
I40
sV\u79fb\u52a8
p151
I33
sV\u4e92\u52a8
p152
I32
sV\u8bd5\u63a2
p153
I102
sV\u5c40\u9762
p154
I159
sV\u5df2\u7ecf
p155
I43
sV\u5f62\u6001
p156
I101
sV\u8fb9\u7f18
p157
I184
sV\u667a\u80fd\u624b\u673a
p158
I5
sV\u4e4b\u52bf
p159
I174
sV\u5347\u7ea7
p160
I20
sV\u79d1\u6280
p161
I15
sV\u9664\u7f8e
p162
I195
sV\u5f62\u6210
p163
I107
sV\u8f93\u5165
p164
I41
sV\u4e92\u8054\u7f51
p165
I19
sV\u56db\u5468
p166
I183
sVQE
p167
I134
sV\u51c6\u786e
p168
I179
sV\u5c5e\u6027
p169
I71
sV\u5177\u5907
p170
I95
sV\u518d\u5ea6
p171
I191
sV\u7b2c\u4e09\u6b21
p172
I124
sV\u65b0\u9ad8
p173
I122
sV\u653e\u91cf
p174
I169
sVpostrank
p175
I56
sV\u4fe1\u5fc3
p176
I190
sV\u4e00\u53cc
p177
I31
sV\u4e0a\u884c
p178
I121
sV\u5bc6\u5207
p179
I182
sV\u4e0b\u65b9
p180
I144
sV\u5e74\u5185
p181
I150
sV\u8f6c\u6298
p182
I164
sV\u6307\u6570
p183
I119
sVGoogle
p184
I0
sV\u5f3a\u70c8
p185
I62
sV\u6bd4\u5982
p186
I65
sV\u773c\u955c
p187
I34
sV\u4ed6\u4eec
p188
I42
sV\u613f\u610f
p189
I63
sV\u66f4\u662f
p190
I161
sV\u5fc3\u9178
p191
I98
sV\u5728\u4e8e
p192
I67
sV\u9605\u8bfb\u5668
p193
I75
sVRSS
p194
I26
sV\u771f\u6b63
p195
I79
sV\u4e09\u5927
p196
I133
sV\u539f\u56e0
p197
I51
s.