(dp0
S'image'
p1
Vhttp://tp1.sinaimg.cn/2136410524/180/5599650163/1
p2
sS'description'
p3
V\u5c31\u662f\u559c\u6b22\u50bb\u7b11o(\uffe3\u30d8\uffe3o\uff03)
p4
sS'uid'
p5
V2136410524
p6
sS'name'
p7
V\u632f\u575a_Jacob
p8
s.