(dp0
VCPI
p1
I350
sV\u4e00\u5207
p2
I148
sV\u53bb\u5e74
p3
I376
sV\u6c34\u679c
p4
I471
sV\u6dd8\u5b9d
p5
I69
sV\u6240\u4ee5
p6
I189
sV\u7535\u5f71
p7
I199
sV\u53d1\u751f
p8
I396
sV\u56fd\u5185
p9
I399
sV\u73b0\u5728
p10
I371
sV\u5e0c\u671b
p11
I154
sV\u4e09\u4e9a
p12
I242
sV\u670d\u52a1
p13
I41
sV\u54c1\u724c
p14
I70
sV\u83dc\u54c1
p15
I498
sV\u521b\u4e1a\u8005
p16
I88
sV\u7f51\u7ad9
p17
I12
sV\u5fae\u4fe1
p18
I149
sV\u5e73\u53f0
p19
I34
sV\u5173\u6ce8
p20
I491
sV\u65b0\u6d6a
p21
I39
sV\u65f6\u5019
p22
I494
sV\u6bcf\u5929
p23
I476
sV\u5403\u8d27
p24
I401
sV\u4eab\u53d7
p25
I249
sV\u653b\u7565
p26
I203
sV\u751c\u54c1
p27
I449
sV\u53e3\u5473
p28
I414
sV\u514d\u8d39
p29
I481
sV\u6280\u672f
p30
I96
sV\u4e2d\u56fd
p31
I300
sV\u611f\u8c22
p32
I439
sV\u4e09\u661f
p33
I32
sV\u8001\u5e08
p34
I142
sV\u53c2\u4e0e
p35
I272
sV\u4f60\u4eec
p36
I188
sV\u9ebb\u8fa3
p37
I486
sV\u5012\u5165
p38
I419
sV\u8377\u5170
p39
I297
sV\u603b\u662f
p40
I195
sV\u4e4b\u65c5
p41
I223
sV\u5fae\u8f6f
p42
I30
sV\u65b0\u95fb
p43
I318
sV\u4eba\u5747
p44
I430
sV\u5c0f\u9547
p45
I283
sV\u63a2\u5e97
p46
I440
sV\u5c31\u662f
p47
I452
sV\u4ea7\u54c1
p48
I391
sV\u4e0d\u9519
p49
I432
sV\u63a8\u51fa
p50
I65
sV\u5927\u5bb6
p51
I423
sV\u5c0f\u706b
p52
I456
sV\u76ee\u524d
p53
I321
sV\u6700\u540e
p54
I198
sV\u7f8e\u4e3d
p55
I217
sV\u4ef7\u683c
p56
I324
sV\u589e\u957f
p57
I314
sV\u7167\u7247
p58
I269
sV\u53d1\u5403
p59
I427
sV\u82f9\u679c
p60
I336
sV\u7c89\u4e1d
p61
I465
sV\u666f\u70b9
p62
I264
sV\u7f8e\u666f
p63
I240
sV\u5feb\u4e50
p64
I137
sV\u8fd9\u4e2a
p65
I463
sV\u53d1\u5c55
p66
I355
sV\u8fd9\u662f
p67
I165
sV\u5373\u53ef
p68
I411
sV\u6c38\u8fdc
p69
I156
sV\u7f51\u53cb
p70
I479
sV\u5176\u5b9e
p71
I150
sV\u534e\u8bed
p72
I160
sV\u56de\u5e94
p73
I393
sV\u65b0\u9c9c
p74
I467
sV\u7231\u60c5
p75
I123
sV\u4e00\u5b9a
p76
I281
sV\u672a\u6765
p77
I375
sV\u559c\u6b22
p78
I416
sV\u65e5\u8baf
p79
I33
sV\u6240\u6709
p80
I168
sV\u4e13\u5bb6
p81
I398
sV\u7f8e\u56fd
p82
I303
sV\u9a6c\u5c14\u4ee3\u592b
p83
I267
sV\u7b80\u5355
p84
I489
sV\u4ebf\u7f8e\u5143
p85
I386
sV\u7279\u60e0
p86
I292
sV\u6599\u9152
p87
I474
sV\u9152\u5e97
p88
I202
sV\u57ce\u5e02
p89
I349
sV\u771f\u6b63
p90
I173
sV\u56fd\u5bb6
p91
I322
sV\u4ec0\u4e48
p92
I451
sV\u5206\u949f
p93
I413
sV\u65c5\u9014
p94
I244
sV\u7535\u5546
p95
I6
sV\u5973\u4eba
p96
I155
sV\u751f\u62bd
p97
I485
sV\u53d1\u9001\u5230
p98
I193
sV\u4e8b\u60c5
p99
I180
sV\u4e1c\u897f
p100
I146
sV\u6e38\u5ba2
p101
I231
sV\u96c6\u56e2
p102
I389
sV\u53ea\u6709
p103
I167
sV\u5929\u5802
p104
I274
sV\u65c5\u884c
p105
I201
sViPhone
p106
I359
sV\u7279\u8272
p107
I472
sV\u5907\u9009
p108
I271
sV\u5a92\u4f53
p109
I381
sV\u4e2d\u5956
p110
I484
sV\u521b\u4e1a
p111
I38
sV\u6700\u7f8e
p112
I226
sV\u6df1\u591c
p113
I431
sV\u4e0b\u5348\u8336
p114
I443
sV\u6d6a\u6f2b
p115
I215
sV\u56e0\u4e3a
p116
I125
sV\u5c0f\u8bf4
p117
I107
sV\u9ec4\u91d1
p118
I366
sV\u9762\u5305
p119
I469
sV\u9999\u6e2f
p120
I245
sVCEO
p121
I29
sV\u6625\u8282
p122
I294
sV\u4eba\u751f
p123
I291
sV\u5f00\u53d1\u8005
p124
I99
sV\u98df\u7269
p125
I441
sV\u95ee\u9898
p126
I311
sV\u94fe\u63a5
p127
I263
sV\u6587\u5b66\u533a
p128
I139
sV\u529f\u80fd
p129
I89
sVApp
p130
I49
sV\u5458\u5de5
p131
I367
sV\u53ef\u80fd
p132
I315
sV\u4eca\u5929
p133
I425
sV\u62a5\u9053
p134
I335
sV\u4e0d\u4f1a
p135
I145
sV\u5168\u56fd
p136
I380
sV\u94f6\u884c
p137
I320
sV\u8349\u8393
p138
I461
sV\u53ea\u662f
p139
I151
sV\u5de7\u514b\u529b
p140
I446
sV\u4e00\u5929
p141
I177
sV\u8d2d\u7269
p142
I282
sV\u8425\u9500
p143
I14
sV\u53d1\u5e03
p144
I340
sV\u6295\u8d44
p145
I307
sV\u516c\u5e03
p146
I368
sV\u6d17\u51c0
p147
I428
sV\u5982\u4f55
p148
I82
sV\u817e\u8baf
p149
I16
sV\u852c\u83dc
p150
I499
sV\u7f8e\u5473
p151
I403
sV\u767e\u5ea6
p152
I18
sV\u4ebf\u5143
p153
I319
sV\u4e16\u754c
p154
I204
sV\u9884\u671f
p155
I394
sV\u9633\u5149
p156
I299
sV\u5e94\u7528
p157
I19
sV\u5982\u679c
p158
I346
sV\u5df2\u7ecf
p159
I337
sV\u5165\u5473
p160
I497
sV\u62a5\u590d
p161
I468
sV\u7ffb\u7092
p162
I435
sV\u80a1\u5e02
p163
I373
sV\u667a\u80fd\u624b\u673a
p164
I22
sV\u653f\u7b56
p165
I330
sV\u63a8\u8350
p166
I405
sV\u516c\u56ed
p167
I250
sV\u4eba\u6c14
p168
I478
sV\u975e\u5e38
p169
I496
sV\u4e0d\u662f
p170
I344
sV\u4e00\u79cd
p171
I130
sV\u7ecf\u5178
p172
I191
sV\u4f01\u4e1a
p173
I304
sVQQ
p174
I52
sVGoogle
p175
I23
sV\u9752\u6625
p176
I164
sV\u8c46\u8150
p177
I457
sV\u663e\u793a
p178
I364
sV\u6765\u81ea
p179
I233
sV\u6210\u4e3a
p180
I370
sV\u4e00\u4e0b
p181
I493
sV\u6210\u529f
p182
I80
sV\u4e07\u5143
p183
I345
sV\u771f\u7684
p184
I192
sV\u85cf\u4e66\u9601
p185
I182
sV\u725b\u5976
p186
I450
sV\u4e00\u4e2a
p187
I436
sV\u5730\u65b9
p188
I210
sV\u6cf0\u56fd
p189
I225
sV\u4e0a\u6da8
p190
I360
sV\u65c5\u6e38
p191
I200
sV\u9605\u8bfb
p192
I121
sV\u5ea6\u5047
p193
I228
sV\u52a0\u62ff\u5927
p194
I262
sV\u77e5\u9053
p195
I293
sVGDP
p196
I317
sV\u592e\u884c
p197
I378
sV\u6bcf\u65e5
p198
I358
sV\u4f53\u9a8c
p199
I216
sV\u7f16\u8f91
p200
I184
sV\u505a\u6cd5
p201
I409
sV\u5065\u5eb7
p202
I444
sV\u7537\u4eba
p203
I161
sV\u6d53\u6c64
p204
I488
sV\u4e0d\u8981
p205
I477
sV\u65e9\u9910
p206
I412
sV\u7f51\u7edc
p207
I31
sV\u51fa\u53d1
p208
I235
sV\u65b0\u52a0\u5761
p209
I213
sV\u641c\u7d22
p210
I48
sV\u65f6\u5c1a
p211
I239
sV\u829d\u58eb
p212
I438
sViPad
p213
I24
sV\u9700\u8981
p214
I390
sV##
p215
I118
sV\u606d\u559c
p216
I475
sVAndroid
p217
I26
sV\u4f5c\u5bb6
p218
I116
sV\u670b\u53cb
p219
I454
sV\u8c37\u6b4c
p220
I7
sV\u9910\u5385
p221
I408
sV\u57fa\u91d1
p222
I395
sV\u5e02\u573a
p223
I302
sV\u8d77\u6765
p224
I483
sV\u9879\u76ee
p225
I365
sV\u5f00\u59cb
p226
I387
sV\u8fd1\u65e5
p227
I351
sV\u51fa\u73b0
p228
I363
sV\u672c\u4e66
p229
I171
sV\u751f\u547d
p230
I124
sV\u5e73\u677f
p231
I55
sV\u5e78\u798f
p232
I248
sV\u7ae5\u978b
p233
I421
sV\u53ef\u4ee5
p234
I410
sV\u4e0a\u6d77
p235
I339
sV\u5e7f\u544a
p236
I15
sV\u6539\u9769
p237
I327
sV\u8fbe\u4eba
p238
I495
sV\u623f\u5730\u4ea7
p239
I342
sV\u665a\u5b89
p240
I261
sV\u6545\u4e8b
p241
I134
sV\u623f\u4ef7
p242
I326
sV\u4fe1\u606f
p243
I72
sV\u4e0d\u80fd
p244
I159
sV\u5e74\u6708\u65e5
p245
I354
sV\u5c0f\u7c73
p246
I74
sV\u51fa\u7248
p247
I187
sV\u4f4d\u4e8e
p248
I254
sV\u5de5\u4f5c
p249
I372
sV\u7b7e\u8bc1
p250
I255
sV\u4e00\u6837
p251
I169
sV\u65e5\u672c
p252
I341
sV\u5c11\u8bb8
p253
I462
sV\u6d77\u6ee9
p254
I266
sV\u770b\u5230
p255
I286
sV\u4eca\u65e5
p256
I379
sV\u5e94\u8be5
p257
I190
sV\u653e\u5165
p258
I407
sV\u90a3\u4e48
p259
I158
sV\u77ed\u4fe1
p260
I181
sV\u5c0f\u5403
p261
I433
sV\u5f88\u591a
p262
I492
sV\u97e9\u56fd
p263
I256
sV\u5e16\u5b50
p264
I278
sV\u65f6\u95f4
p265
I377
sVDIY
p266
I422
sV\u5fb7\u56fd
p267
I252
sV\u6628\u65e5
p268
I385
sV\u79fb\u52a8
p269
I4
sV\u751f\u6d3b
p270
I234
sV\u6392\u9aa8
p271
I464
sV\u4eca\u5e74
p272
I343
sV\u5927\u4f1a
p273
I86
sV\u90a3\u4e9b
p274
I174
sV\u79d1\u6280
p275
I42
sV\u8be6\u7ec6
p276
I429
sV\u5473\u9053
p277
I404
sViOS
p278
I45
sV\u9519\u8fc7
p279
I290
sV\u725b\u8089
p280
I417
sV\u53e3\u611f
p281
I426
sV\u5b69\u5b50
p282
I131
sV\u8868\u793a
p283
I310
sV\u81ea\u7531
p284
I268
sV\u70e7\u70e4
p285
I487
sV\u56de\u590d
p286
I353
sV\u624b\u673a
p287
I140
sV\u6211\u4eec
p288
I453
sV\u8bfa\u57fa\u4e9a
p289
I61
sV\u4e3d\u6c5f
p290
I270
sV\u5317\u4eac
p291
I306
sV\u597d\u5403
p292
I406
sV\u5168\u7403
p293
I334
sV\u7535\u8111
p294
I57
sV\u653f\u5e9c
p295
I308
sV\u62cc\u5300
p296
I480
sV\u7f8e\u5143
p297
I357
sV\u5c0f\u7f16
p298
I455
sV\u65b0\u897f\u5170
p299
I253
sV\u53d1\u73b0
p300
I362
sV\u8fd8\u6709
p301
I447
sV\u8fd9\u91cc
p302
I211
sV\u706b\u9505
p303
I418
sV\u98ce\u666f
p304
I243
sV\u8d85\u8fc7
p305
I397
sV\u89c9\u5f97
p306
I157
sV\u5730\u9707
p307
I332
sV\u4f7f\u7528
p308
I81
sV\u793e\u4ea4
p309
I27
sV\u6e38\u620f
p310
I58
sV\u6ca1\u6709
p311
I316
sVFacebook
p312
I17
sV\u516c\u53f8
p313
I305
sV\u66f4\u591a
p314
I434
sV\u5348\u9910
p315
I466
sV\u81ea\u5df1
p316
I445
sV\u5730\u5740
p317
I402
sV\u522b\u4eba
p318
I120
sV\u571f\u8c46
p319
I473
sV\u65e9\u5b89
p320
I442
sV\u540c\u6bd4
p321
I348
sV\u76db\u5927
p322
I172
sV\u6d88\u606f
p323
I361
sV\u4eba\u6c11\u5e01
p324
I323
sV\u4ece\u5fc3
p325
I260
sV\u5047\u671f
p326
I295
sV\u800c\u662f
p327
I175
sV\u4f5c\u54c1
p328
I129
sV\u4f5c\u8005
p329
I126
sV\u6295\u7968
p330
I259
sV\u8bb0\u8005
p331
I309
sV\u4eac\u4e1c
p332
I63
sV\u4e00\u751f
p333
I236
sV\u5496\u5561
p334
I437
sV\u793e\u4f1a
p335
I382
sV\u52a0\u5165
p336
I420
sV\u8bfb\u8005
p337
I166
sV\u6d77\u9c9c
p338
I460
sV\u6570\u636e
p339
I329
sV\u89c6\u9891
p340
I37
sV\u6536\u5165
p341
I369
sV\u611f\u53d7
p342
I251
sV\u7528\u6237
p343
I1
sV\u6d3b\u52a8
p344
I470
sV\u6bcf\u7ecf
p345
I328
sV\u745e\u58eb
p346
I247
sV\u4e00\u8d77
p347
I458
sV\u86cb\u7cd5
p348
I415
sV\u56fe\u7247
p349
I288
sV\u8fd9\u6837
p350
I143
sV\u6d4f\u89c8\u5668
p351
I78
sV\u6bcf\u4e2a
p352
I197
sV\u98df\u6750
p353
I448
sV\u8bfb\u60a6
p354
I178
sV\u665a\u9910
p355
I459
sV\u8fd8\u662f
p356
I490
sV\u8c03\u67e5
p357
I325
sV\u6587\u5b66
p358
I103
sV\u8fdb\u884c
p359
I388
sV\u6587\u5316
p360
I298
sVWindows
p361
I40
sV\u652f\u6301
p362
I91
sV\u7cbe\u5f69
p363
I141
sV\u8ba4\u4e3a
p364
I347
sV\u76ee\u7684\u5730
p365
I289
sV\u5f71\u54cd
p366
I384
sV\u7ecf\u6d4e
p367
I301
sV\u65b9\u5f0f
p368
I185
sV\u9e21\u86cb
p369
I424
sV\u4ed6\u4eec
p370
I383
sV\u8292\u679c
p371
I482
sV\u4e92\u8054\u7f51
p372
I0
sV\u7f8e\u98df
p373
I400
s.